; Function Attrs: null_pointer_is_valid sspstrong uwtable
define range(i64 -72057594037927936, 72057594037927936) i64 @tvb_get_int48(ptr noundef %0, i32 noundef %1, i32 noundef %2) local_unnamed_addr #0 {
  %.not = icmp sgt i32 %2, -1
  %4 = tail call fastcc ptr @fast_ensure_contiguous(ptr noundef %0, i32 noundef %1, i32 noundef 6)
  br i1 %.not, label %14, label %5

5:                                                ; preds = %3
  %6 = getelementptr i8, ptr %4, i64 2
  %7 = load i32, ptr %6, align 1
  %8 = zext i32 %7 to i64
  %9 = shl nuw nsw i64 %8, 16
  %10 = load i16, ptr %4, align 1
  %11 = zext i16 %10 to i64
  %12 = or disjoint i64 %9, %11
  %.not.i.i = icmp sgt i32 %7, -1
  %13 = select i1 %.not.i.i, i64 0, i64 -281474976710656
  %.010.i.i = or disjoint i64 %12, %13
  br label %43

14:                                               ; preds = %3
  %15 = load i8, ptr %4, align 1
  %16 = zext i8 %15 to i64
  %17 = shl nuw nsw i64 %16, 40
  %18 = getelementptr i8, ptr %4, i64 1
  %19 = load i8, ptr %18, align 1
  %20 = zext i8 %19 to i64
  %21 = shl nuw nsw i64 %20, 32
  %22 = getelementptr i8, ptr %4, i64 2
  %23 = load i8, ptr %22, align 1
  %24 = zext i8 %23 to i64
  %25 = shl nuw nsw i64 %24, 24
  %26 = getelementptr i8, ptr %4, i64 3
  %27 = load i8, ptr %26, align 1
  %28 = zext i8 %27 to i64
  %29 = shl nuw nsw i64 %28, 16
  %30 = getelementptr i8, ptr %4, i64 4
  %31 = load i8, ptr %30, align 1
  %32 = zext i8 %31 to i64
  %33 = shl nuw nsw i64 %32, 8
  %34 = getelementptr i8, ptr %4, i64 5
  %35 = load i8, ptr %34, align 1
  %36 = zext i8 %35 to i64
  %.not.i.i5 = icmp sgt i8 %15, -1
  %37 = select i1 %.not.i.i5, i64 0, i64 -281474976710656
  %38 = or disjoint i64 %37, %17
  %39 = or disjoint i64 %38, %21
  %40 = or disjoint i64 %39, %25
  %41 = or disjoint i64 %40, %29
  %42 = or disjoint i64 %41, %36
  %.010.i.i6 = or disjoint i64 %42, %33
  br label %43

43:                                               ; preds = %14, %5
  %.0 = phi i64 [ %.010.i.i, %5 ], [ %.010.i.i6, %14 ]
  ret i64 %.0
}